target datalayout = "e-m:e-p270:32:32-p271:32:32-p272:64:64-i64:64-i128:128-f80:128-n8:16:32:64-S128"
target triple = "x86_64-unknown-linux-gnu"

; Function Attrs: mustprogress nounwind uwtable
define internal void @_ZL12write_signedIlEvRN4llvh11raw_ostreamET_mNS0_12IntegerStyleE(ptr noundef nonnull align 8 dereferenceable(36) %S, i64 noundef %N, i64 noundef %MinDigits, i32 noundef %Style) #0 {
entry:
  %S.addr = alloca ptr, align 8
  %N.addr = alloca i64, align 8
  %MinDigits.addr = alloca i64, align 8
  %Style.addr = alloca i32, align 4
  %UN = alloca i64, align 8
  store ptr %S, ptr %S.addr, align 8
  store i64 %N, ptr %N.addr, align 8
  store i64 %MinDigits, ptr %MinDigits.addr, align 8
  store i32 %Style, ptr %Style.addr, align 4
  %0 = load i64, ptr %N.addr, align 8
  %cmp = icmp sge i64 %0, 0
  br i1 %cmp, label %if.then, label %if.end

if.then:                                          ; preds = %entry
  %1 = load ptr, ptr %S.addr, align 8
  %2 = load i64, ptr %N.addr, align 8
  %3 = load i64, ptr %MinDigits.addr, align 8
  %4 = load i32, ptr %Style.addr, align 4
  call void @_ZL14write_unsignedImEvRN4llvh11raw_ostreamET_mNS0_12IntegerStyleEb(ptr noundef nonnull align 8 dereferenceable(36) %1, i64 noundef %2, i64 noundef %3, i32 noundef %4, i1 noundef zeroext false)
  br label %return

if.end:                                           ; preds = %entry
  %5 = load i64, ptr %N.addr, align 8
  %sub = sub i64 0, %5
  store i64 %sub, ptr %UN, align 8
  %6 = load ptr, ptr %S.addr, align 8
  %7 = load i64, ptr %UN, align 8
  %8 = load i64, ptr %MinDigits.addr, align 8
  %9 = load i32, ptr %Style.addr, align 4
  call void @_ZL14write_unsignedImEvRN4llvh11raw_ostreamET_mNS0_12IntegerStyleEb(ptr noundef nonnull align 8 dereferenceable(36) %6, i64 noundef %7, i64 noundef %8, i32 noundef %9, i1 noundef zeroext true)
  br label %return

return:                                           ; preds = %if.end, %if.then
  ret void
}

; Function Attrs: mustprogress nounwind uwtable
define hidden void @_ZN4llvh13write_integerERNS_11raw_ostreamElmNS_12IntegerStyleE(ptr noundef nonnull align 8 dereferenceable(36) %S, i64 noundef %N, i64 noundef %MinDigits, i32 noundef %Style) #0 {
entry:
  %S.addr = alloca ptr, align 8
  %N.addr = alloca i64, align 8
  %MinDigits.addr = alloca i64, align 8
  %Style.addr = alloca i32, align 4
  store ptr %S, ptr %S.addr, align 8
  store i64 %N, ptr %N.addr, align 8
  store i64 %MinDigits, ptr %MinDigits.addr, align 8
  store i32 %Style, ptr %Style.addr, align 4
  %0 = load ptr, ptr %S.addr, align 8
  %1 = load i64, ptr %N.addr, align 8
  %2 = load i64, ptr %MinDigits.addr, align 8
  %3 = load i32, ptr %Style.addr, align 4
  call void @_ZL12write_signedIlEvRN4llvh11raw_ostreamET_mNS0_12IntegerStyleE(ptr noundef nonnull align 8 dereferenceable(36) %0, i64 noundef %1, i64 noundef %2, i32 noundef %3)
  ret void
}