; Function Attrs: mustprogress nounwind uwtable
define hidden void @_ZN4llvh13write_integerERNS_11raw_ostreamElmNS_12IntegerStyleE(ptr noundef nonnull align 8 dereferenceable(36) %S, i64 noundef %N, i64 noundef %MinDigits, i32 noundef %Style) local_unnamed_addr #0 {
entry:
  %cmp.i = icmp sgt i64 %N, -1
  br i1 %cmp.i, label %if.then.i, label %if.end.i

if.then.i:                                        ; preds = %entry
  tail call fastcc void @_ZL14write_unsignedImEvRN4llvh11raw_ostreamET_mNS0_12IntegerStyleEb(ptr noundef nonnull align 8 dereferenceable(36) %S, i64 noundef %N, i64 noundef %MinDigits, i32 noundef %Style, i1 noundef zeroext false)
  br label %_ZL12write_signedIlEvRN4llvh11raw_ostreamET_mNS0_12IntegerStyleE.exit

if.end.i:                                         ; preds = %entry
  %sub.i = sub i64 0, %N
  tail call fastcc void @_ZL14write_unsignedImEvRN4llvh11raw_ostreamET_mNS0_12IntegerStyleEb(ptr noundef nonnull align 8 dereferenceable(36) %S, i64 noundef %sub.i, i64 noundef %MinDigits, i32 noundef %Style, i1 noundef zeroext true)
  br label %_ZL12write_signedIlEvRN4llvh11raw_ostreamET_mNS0_12IntegerStyleE.exit

_ZL12write_signedIlEvRN4llvh11raw_ostreamET_mNS0_12IntegerStyleE.exit: ; preds = %if.then.i, %if.end.i
  ret void
}